; Function Attrs: nounwind uwtable
define range(i32 -101, 1) i32 @CVodeAdjReInit(ptr noundef %0) local_unnamed_addr #0 {
  %2 = icmp eq ptr %0, null
  br i1 %2, label %3, label %4

3:                                                ; preds = %1
  tail call void (ptr, i32, i32, ptr, ptr, ptr, ...) @cvProcessError(ptr noundef null, i32 noundef -21, i32 noundef 306, ptr noundef nonnull @__func__.CVodeAdjReInit, ptr noundef nonnull @.str, ptr noundef nonnull @.str.1) #9
  br label %20

4:                                                ; preds = %1
  %5 = getelementptr inbounds nuw i8, ptr %0, i64 2680
  %6 = load i32, ptr %5, align 8, !tbaa !48
  %7 = icmp eq i32 %6, 0
  br i1 %7, label %8, label %9

8:                                                ; preds = %4
  tail call void (ptr, i32, i32, ptr, ptr, ptr, ...) @cvProcessError(ptr noundef nonnull %0, i32 noundef -101, i32 noundef 316, ptr noundef nonnull @__func__.CVodeAdjReInit, ptr noundef nonnull @.str, ptr noundef nonnull @.str.5) #9
  br label %20

9:                                                ; preds = %4
  %10 = getelementptr inbounds nuw i8, ptr %0, i64 2672
  %11 = load ptr, ptr %10, align 8, !tbaa !3
  %12 = getelementptr inbounds nuw i8, ptr %11, i64 80
  %13 = load ptr, ptr %12, align 8, !tbaa !20
  %.not14 = icmp eq ptr %13, null
  br i1 %.not14, label %._crit_edge, label %.lr.ph

.lr.ph:                                           ; preds = %9, %.lr.ph
  tail call fastcc void @CVAckpntDelete(ptr noundef nonnull %12)
  %14 = load ptr, ptr %12, align 8, !tbaa !20
  %.not = icmp eq ptr %14, null
  br i1 %.not, label %._crit_edge, label %.lr.ph

._crit_edge:                                      ; preds = %.lr.ph, %9
  store ptr null, ptr %12, align 8, !tbaa !20
  %15 = getelementptr inbounds nuw i8, ptr %11, i64 88
  store i32 0, ptr %15, align 8, !tbaa !25
  %16 = getelementptr inbounds nuw i8, ptr %11, i64 96
  store ptr null, ptr %16, align 8, !tbaa !26
  %17 = getelementptr inbounds nuw i8, ptr %11, i64 16
  store i32 1, ptr %17, align 8, !tbaa !43
  %18 = getelementptr inbounds nuw i8, ptr %11, i64 20
  store i32 0, ptr %18, align 4, !tbaa !44
  %19 = getelementptr inbounds nuw i8, ptr %11, i64 72
  store i32 1, ptr %19, align 8, !tbaa !45
  br label %20

20:                                               ; preds = %._crit_edge, %8, %3
  %.0 = phi i32 [ -21, %3 ], [ -101, %8 ], [ 0, %._crit_edge ]
  ret i32 %.0
}